target datalayout = "e-m:e-p270:32:32-p271:32:32-p272:64:64-i64:64-i128:128-f80:128-n8:16:32:64-S128"
target triple = "x86_64-pc-linux-gnu"

%"struct.faiss::NSG" = type { i32, i32, i32, i32, i32, i32, %"class.std::shared_ptr", i8, %"struct.faiss::RandomGenerator" }
%"class.std::shared_ptr" = type { %"class.std::__shared_ptr" }
%"class.std::__shared_ptr" = type { ptr, %"class.std::__shared_count" }
%"class.std::__shared_count" = type { ptr }
%"struct.faiss::RandomGenerator" = type { %"class.std::mersenne_twister_engine" }
%"class.std::mersenne_twister_engine" = type { [624 x i64], i64 }

; Function Attrs: mustprogress nounwind uwtable
define linkonce_odr void @_ZNSt14__shared_countILN9__gnu_cxx12_Lock_policyE2EEC2Ev(ptr noundef nonnull align 8 dereferenceable(8) %0) unnamed_addr #1 comdat align 2 {
  %2 = alloca ptr, align 8
  store ptr %0, ptr %2, align 8, !tbaa !49
  %3 = load ptr, ptr %2, align 8
  %4 = getelementptr inbounds nuw %"class.std::__shared_count", ptr %3, i32 0, i32 0
  store ptr null, ptr %4, align 8, !tbaa !51
  ret void
}

; Function Attrs: mustprogress nounwind uwtable
define linkonce_odr void @_ZNSt12__shared_ptrIN5faiss3nsg5GraphIiEELN9__gnu_cxx12_Lock_policyE2EEC2Ev(ptr noundef nonnull align 8 dereferenceable(16) %0) unnamed_addr #1 comdat align 2 {
  %2 = alloca ptr, align 8
  store ptr %0, ptr %2, align 8, !tbaa !84
  %3 = load ptr, ptr %2, align 8
  %4 = getelementptr inbounds nuw %"class.std::__shared_ptr", ptr %3, i32 0, i32 0
  store ptr null, ptr %4, align 8, !tbaa !86
  %5 = getelementptr inbounds nuw %"class.std::__shared_ptr", ptr %3, i32 0, i32 1
  call void @_ZNSt14__shared_countILN9__gnu_cxx12_Lock_policyE2EEC2Ev(ptr noundef nonnull align 8 dereferenceable(8) %5) #20
  ret void
}

; Function Attrs: mustprogress nounwind uwtable
define linkonce_odr void @_ZNSt10shared_ptrIN5faiss3nsg5GraphIiEEEC2Ev(ptr noundef nonnull align 8 dereferenceable(16) %0) unnamed_addr #1 comdat align 2 {
  %2 = alloca ptr, align 8
  store ptr %0, ptr %2, align 8, !tbaa !47
  %3 = load ptr, ptr %2, align 8
  call void @_ZNSt12__shared_ptrIN5faiss3nsg5GraphIiEELN9__gnu_cxx12_Lock_policyE2EEC2Ev(ptr noundef nonnull align 8 dereferenceable(16) %3) #20
  ret void
}

; Function Attrs: mustprogress uwtable
define void @_ZN5faiss3NSGC2Ei(ptr noundef nonnull align 8 dereferenceable(5048) %0, i32 noundef %1) unnamed_addr #0 align 2 personality ptr @__gxx_personality_v0 {
  %3 = alloca ptr, align 8
  %4 = alloca i32, align 4
  %5 = alloca ptr, align 8
  %6 = alloca i32, align 4
  store ptr %0, ptr %3, align 8, !tbaa !30
  store i32 %1, ptr %4, align 4, !tbaa !32
  %7 = load ptr, ptr %3, align 8
  %8 = getelementptr inbounds nuw %"struct.faiss::NSG", ptr %7, i32 0, i32 0
  store i32 0, ptr %8, align 8, !tbaa !33
  %9 = getelementptr inbounds nuw %"struct.faiss::NSG", ptr %7, i32 0, i32 1
  %10 = load i32, ptr %4, align 4, !tbaa !32
  store i32 %10, ptr %9, align 4, !tbaa !42
  %11 = getelementptr inbounds nuw %"struct.faiss::NSG", ptr %7, i32 0, i32 4
  store i32 16, ptr %11, align 8, !tbaa !43
  %12 = getelementptr inbounds nuw %"struct.faiss::NSG", ptr %7, i32 0, i32 6
  call void @_ZNSt10shared_ptrIN5faiss3nsg5GraphIiEEEC2Ev(ptr noundef nonnull align 8 dereferenceable(16) %12) #20
  %13 = getelementptr inbounds nuw %"struct.faiss::NSG", ptr %7, i32 0, i32 7
  store i8 0, ptr %13, align 8, !tbaa !44
  %14 = getelementptr inbounds nuw %"struct.faiss::NSG", ptr %7, i32 0, i32 8
  invoke void @_ZN5faiss15RandomGeneratorC1El(ptr noundef nonnull align 8 dereferenceable(5000) %14, i64 noundef 2307)
          to label %15 unwind label %22

15:                                               ; preds = %2
  %16 = load i32, ptr %4, align 4, !tbaa !32
  %17 = add nsw i32 %16, 32
  %18 = getelementptr inbounds nuw %"struct.faiss::NSG", ptr %7, i32 0, i32 2
  store i32 %17, ptr %18, align 8, !tbaa !45
  %19 = load i32, ptr %4, align 4, !tbaa !32
  %20 = add nsw i32 %19, 100
  %21 = getelementptr inbounds nuw %"struct.faiss::NSG", ptr %7, i32 0, i32 3
  store i32 %20, ptr %21, align 4, !tbaa !46
  call void @srand(i32 noundef 6552) #20
  ret void

22:                                               ; preds = %2
  %23 = landingpad { ptr, i32 }
          cleanup
  %24 = extractvalue { ptr, i32 } %23, 0
  store ptr %24, ptr %5, align 8
  %25 = extractvalue { ptr, i32 } %23, 1
  store i32 %25, ptr %6, align 4
  call void @_ZNSt12__shared_ptrIN5faiss3nsg5GraphIiEELN9__gnu_cxx12_Lock_policyE2EED2Ev(ptr noundef nonnull align 8 dereferenceable(16) %12) #20
  br label %26

26:                                               ; preds = %22
  %27 = load ptr, ptr %5, align 8
  %28 = load i32, ptr %6, align 4
  %29 = insertvalue { ptr, i32 } poison, ptr %27, 0
  %30 = insertvalue { ptr, i32 } %29, i32 %28, 1
  resume { ptr, i32 } %30
}