; Function Attrs: mustprogress uwtable
define void @_ZN5faiss3NSGC2Ei(ptr noundef nonnull align 8 dereferenceable(5048) initializes((0, 8), (16, 20), (24, 41)) %0, i32 noundef %1) unnamed_addr #0 align 2 personality ptr @__gxx_personality_v0 {
  store i32 0, ptr %0, align 8, !tbaa !21
  %3 = getelementptr inbounds nuw i8, ptr %0, i64 4
  store i32 %1, ptr %3, align 4, !tbaa !30
  %4 = getelementptr inbounds nuw i8, ptr %0, i64 16
  store i32 16, ptr %4, align 8, !tbaa !31
  %5 = getelementptr inbounds nuw i8, ptr %0, i64 24
  %6 = getelementptr inbounds nuw i8, ptr %0, i64 48
  tail call void @llvm.memset.p0.i64(ptr noundef nonnull align 8 dereferenceable(17) %5, i8 0, i64 17, i1 false)
  invoke void @_ZN5faiss15RandomGeneratorC1El(ptr noundef nonnull align 8 dereferenceable(5000) %6, i64 noundef 2307)
          to label %7 unwind label %12

7:                                                ; preds = %2
  %8 = add nsw i32 %1, 32
  %9 = getelementptr inbounds nuw i8, ptr %0, i64 8
  store i32 %8, ptr %9, align 8, !tbaa !32
  %10 = add nsw i32 %1, 100
  %11 = getelementptr inbounds nuw i8, ptr %0, i64 12
  store i32 %10, ptr %11, align 4, !tbaa !33
  tail call void @srand(i32 noundef 6552) #18
  ret void

12:                                               ; preds = %2
  %13 = landingpad { ptr, i32 }
          cleanup
  tail call void @_ZNSt12__shared_ptrIN5faiss3nsg5GraphIiEELN9__gnu_cxx12_Lock_policyE2EED2Ev(ptr noundef nonnull align 8 dereferenceable(16) %5) #18
  resume { ptr, i32 } %13
}